target datalayout = "e-m:e-p270:32:32-p271:32:32-p272:64:64-i64:64-i128:128-f80:128-n8:16:32:64-S128"
target triple = "x86_64-pc-linux-gnu"

%struct.JNINativeInterface_ = type { ptr, ptr, ptr, ptr, ptr, ptr, ptr, ptr, ptr, ptr, ptr, ptr, ptr, ptr, ptr, ptr, ptr, ptr, ptr, ptr, ptr, ptr, ptr, ptr, ptr, ptr, ptr, ptr, ptr, ptr, ptr, ptr, ptr, ptr, ptr, ptr, ptr, ptr, ptr, ptr, ptr, ptr, ptr, ptr, ptr, ptr, ptr, ptr, ptr, ptr, ptr, ptr, ptr, ptr, ptr, ptr, ptr, ptr, ptr, ptr, ptr, ptr, ptr, ptr, ptr, ptr, ptr, ptr, ptr, ptr, ptr, ptr, ptr, ptr, ptr, ptr, ptr, ptr, ptr, ptr, ptr, ptr, ptr, ptr, ptr, ptr, ptr, ptr, ptr, ptr, ptr, ptr, ptr, ptr, ptr, ptr, ptr, ptr, ptr, ptr, ptr, ptr, ptr, ptr, ptr, ptr, ptr, ptr, ptr, ptr, ptr, ptr, ptr, ptr, ptr, ptr, ptr, ptr, ptr, ptr, ptr, ptr, ptr, ptr, ptr, ptr, ptr, ptr, ptr, ptr, ptr, ptr, ptr, ptr, ptr, ptr, ptr, ptr, ptr, ptr, ptr, ptr, ptr, ptr, ptr, ptr, ptr, ptr, ptr, ptr, ptr, ptr, ptr, ptr, ptr, ptr, ptr, ptr, ptr, ptr, ptr, ptr, ptr, ptr, ptr, ptr, ptr, ptr, ptr, ptr, ptr, ptr, ptr, ptr, ptr, ptr, ptr, ptr, ptr, ptr, ptr, ptr, ptr, ptr, ptr, ptr, ptr, ptr, ptr, ptr, ptr, ptr, ptr, ptr, ptr, ptr, ptr, ptr, ptr, ptr, ptr, ptr, ptr, ptr, ptr, ptr, ptr, ptr, ptr, ptr, ptr, ptr, ptr, ptr, ptr, ptr, ptr, ptr, ptr, ptr, ptr, ptr, ptr, ptr, ptr, ptr, ptr, ptr, ptr, ptr, ptr, ptr, ptr, ptr, ptr }
%struct.timespec = type { i64, i64 }

@my_futimens_func = internal global ptr null, align 8
@.str.43 = private unnamed_addr constant [25 x i8] c"my_futimens_func is NULL\00", align 1
@.str.46 = private unnamed_addr constant [25 x i8] c"sun/nio/fs/UnixException\00", align 1
@.str.47 = private unnamed_addr constant [5 x i8] c"(I)V\00", align 1

; Function Attrs: nounwind uwtable
define internal void @throwUnixException(ptr noundef %0, i32 noundef %1) #0 {
  %3 = alloca ptr, align 8
  %4 = alloca i32, align 4
  %5 = alloca ptr, align 8
  store ptr %0, ptr %3, align 8
  store i32 %1, ptr %4, align 4
  %6 = load ptr, ptr %3, align 8
  %7 = load i32, ptr %4, align 4
  %8 = call ptr (ptr, ptr, ptr, ...) @JNU_NewObjectByName(ptr noundef %6, ptr noundef @.str.46, ptr noundef @.str.47, i32 noundef %7)
  store ptr %8, ptr %5, align 8
  %9 = load ptr, ptr %5, align 8
  %10 = icmp ne ptr %9, null
  br i1 %10, label %11, label %19

11:                                               ; preds = %2
  %12 = load ptr, ptr %3, align 8
  %13 = load ptr, ptr %12, align 8
  %14 = getelementptr inbounds %struct.JNINativeInterface_, ptr %13, i32 0, i32 13
  %15 = load ptr, ptr %14, align 8
  %16 = load ptr, ptr %3, align 8
  %17 = load ptr, ptr %5, align 8
  %18 = call i32 %15(ptr noundef %16, ptr noundef %17)
  br label %19

19:                                               ; preds = %11, %2
  ret void
}

; Function Attrs: nounwind uwtable
define void @Java_sun_nio_fs_UnixNativeDispatcher_futimens0(ptr noundef %0, ptr noundef %1, i32 noundef %2, i64 noundef %3, i64 noundef %4) #0 {
  %6 = alloca ptr, align 8
  %7 = alloca ptr, align 8
  %8 = alloca i32, align 4
  %9 = alloca i64, align 8
  %10 = alloca i64, align 8
  %11 = alloca [2 x %struct.timespec], align 16
  %12 = alloca i32, align 4
  store ptr %0, ptr %6, align 8
  store ptr %1, ptr %7, align 8
  store i32 %2, ptr %8, align 4
  store i64 %3, ptr %9, align 8
  store i64 %4, ptr %10, align 8
  store i32 0, ptr %12, align 4
  %13 = load i64, ptr %9, align 8
  %14 = sdiv i64 %13, 1000000000
  %15 = getelementptr inbounds [2 x %struct.timespec], ptr %11, i64 0, i64 0
  %16 = getelementptr inbounds %struct.timespec, ptr %15, i32 0, i32 0
  store i64 %14, ptr %16, align 16
  %17 = load i64, ptr %9, align 8
  %18 = srem i64 %17, 1000000000
  %19 = getelementptr inbounds [2 x %struct.timespec], ptr %11, i64 0, i64 0
  %20 = getelementptr inbounds %struct.timespec, ptr %19, i32 0, i32 1
  store i64 %18, ptr %20, align 8
  %21 = load i64, ptr %10, align 8
  %22 = sdiv i64 %21, 1000000000
  %23 = getelementptr inbounds [2 x %struct.timespec], ptr %11, i64 0, i64 1
  %24 = getelementptr inbounds %struct.timespec, ptr %23, i32 0, i32 0
  store i64 %22, ptr %24, align 16
  %25 = load i64, ptr %10, align 8
  %26 = srem i64 %25, 1000000000
  %27 = getelementptr inbounds [2 x %struct.timespec], ptr %11, i64 0, i64 1
  %28 = getelementptr inbounds %struct.timespec, ptr %27, i32 0, i32 1
  store i64 %26, ptr %28, align 8
  %29 = load ptr, ptr @my_futimens_func, align 8
  %30 = icmp eq ptr %29, null
  br i1 %30, label %31, label %33

31:                                               ; preds = %5
  %32 = load ptr, ptr %6, align 8
  call void @JNU_ThrowInternalError(ptr noundef %32, ptr noundef @.str.43)
  br label %57

33:                                               ; preds = %5
  br label %34

34:                                               ; preds = %33
  br label %35

35:                                               ; preds = %47, %34
  %36 = load ptr, ptr @my_futimens_func, align 8
  %37 = load i32, ptr %8, align 4
  %38 = getelementptr inbounds [2 x %struct.timespec], ptr %11, i64 0, i64 0
  %39 = call i32 %36(i32 noundef %37, ptr noundef %38)
  store i32 %39, ptr %12, align 4
  br label %40

40:                                               ; preds = %35
  %41 = load i32, ptr %12, align 4
  %42 = icmp eq i32 %41, -1
  br i1 %42, label %43, label %47

43:                                               ; preds = %40
  %44 = call ptr @__errno_location() #7
  %45 = load i32, ptr %44, align 4
  %46 = icmp eq i32 %45, 4
  br label %47

47:                                               ; preds = %43, %40
  %48 = phi i1 [ false, %40 ], [ %46, %43 ]
  br i1 %48, label %35, label %49, !llvm.loop !27

49:                                               ; preds = %47
  br label %50

50:                                               ; preds = %49
  %51 = load i32, ptr %12, align 4
  %52 = icmp eq i32 %51, -1
  br i1 %52, label %53, label %57

53:                                               ; preds = %50
  %54 = load ptr, ptr %6, align 8
  %55 = call ptr @__errno_location() #7
  %56 = load i32, ptr %55, align 4
  call void @throwUnixException(ptr noundef %54, i32 noundef %56)
  br label %57

57:                                               ; preds = %53, %50, %31
  ret void
}