; Function Attrs: nounwind uwtable
define void @Java_sun_nio_fs_UnixNativeDispatcher_futimens0(ptr noundef %0, ptr nocapture noundef readnone %1, i32 noundef %2, i64 noundef %3, i64 noundef %4) local_unnamed_addr #0 {
  %6 = alloca [2 x %struct.timespec], align 16
  %7 = sdiv i64 %3, 1000000000
  store i64 %7, ptr %6, align 16
  %8 = srem i64 %3, 1000000000
  %9 = getelementptr inbounds i8, ptr %6, i64 8
  store i64 %8, ptr %9, align 8
  %10 = sdiv i64 %4, 1000000000
  %11 = getelementptr inbounds i8, ptr %6, i64 16
  store i64 %10, ptr %11, align 16
  %12 = srem i64 %4, 1000000000
  %13 = getelementptr inbounds i8, ptr %6, i64 24
  store i64 %12, ptr %13, align 8
  %14 = load ptr, ptr @my_futimens_func, align 8
  %15 = icmp eq ptr %14, null
  br i1 %15, label %16, label %.preheader

16:                                               ; preds = %5
  tail call void @JNU_ThrowInternalError(ptr noundef %0, ptr noundef nonnull @.str.43) #11
  br label %.critedge8

.preheader:                                       ; preds = %5, %20
  %17 = load ptr, ptr @my_futimens_func, align 8
  %18 = call i32 %17(i32 noundef %2, ptr noundef nonnull %6) #11
  %19 = icmp eq i32 %18, -1
  br i1 %19, label %20, label %.critedge8

20:                                               ; preds = %.preheader
  %21 = tail call ptr @__errno_location() #12
  %22 = load i32, ptr %21, align 4
  %23 = icmp eq i32 %22, 4
  br i1 %23, label %.preheader, label %.critedge, !llvm.loop !43

.critedge:                                        ; preds = %20
  %24 = call ptr (ptr, ptr, ptr, ...) @JNU_NewObjectByName(ptr noundef %0, ptr noundef nonnull @.str.46, ptr noundef nonnull @.str.47, i32 noundef %22) #11
  %.not.i = icmp eq ptr %24, null
  br i1 %.not.i, label %.critedge8, label %25

25:                                               ; preds = %.critedge
  %26 = load ptr, ptr %0, align 8
  %27 = getelementptr inbounds i8, ptr %26, i64 104
  %28 = load ptr, ptr %27, align 8
  %29 = call i32 %28(ptr noundef nonnull %0, ptr noundef nonnull %24) #11
  br label %.critedge8

.critedge8:                                       ; preds = %.preheader, %25, %.critedge, %16
  ret void
}